target datalayout = "e-m:e-p270:32:32-p271:32:32-p272:64:64-i64:64-i128:128-f80:128-n8:16:32:64-S128"
target triple = "x86_64-pc-linux-gnu"

%union.pthread_cond_t = type { %struct.__pthread_cond_s }
%struct.__pthread_cond_s = type { %union.__atomic_wide_counter, %union.__atomic_wide_counter, [2 x i32], [2 x i32], i32, i32, [2 x i32] }
%union.__atomic_wide_counter = type { i64 }
%union.pthread_mutex_t = type { %struct.__pthread_mutex_s }
%struct.__pthread_mutex_s = type { i32, i32, i32, i32, i32, i16, i16, %struct.__pthread_internal_list }
%struct.__pthread_internal_list = type { ptr, ptr }
%struct.slurm_conf_t = type { i64, ptr, i16, ptr, ptr, ptr, ptr, ptr, i16, ptr, ptr, ptr, ptr, ptr, ptr, ptr, i16, ptr, ptr, ptr, ptr, i16, ptr, ptr, ptr, i64, ptr, ptr, ptr, ptr, i16, ptr, ptr, i16, i32, ptr, i32, ptr, i32, i32, ptr, ptr, i64, i64, ptr, i16, i16, ptr, i32, i32, ptr, i32, ptr, i32, i16, i16, i16, ptr, i16, i16, ptr, ptr, i32, i16, i16, ptr, i32, i16, ptr, ptr, ptr, ptr, i16, ptr, ptr, ptr, ptr, i32, ptr, ptr, ptr, ptr, i16, i16, ptr, i32, i32, i32, i16, i16, ptr, ptr, i16, ptr, ptr, i32, i32, i32, i32, i32, i64, i32, i32, i16, ptr, ptr, i32, ptr, ptr, ptr, i16, i32, ptr, ptr, i16, ptr, ptr, i32, i16, ptr, ptr, ptr, ptr, i32, i32, i16, i16, i32, ptr, i16, ptr, i32, i32, i32, i32, i32, i32, ptr, i16, ptr, ptr, i32, i16, ptr, i32, i16, i16, ptr, ptr, ptr, i16, ptr, ptr, ptr, ptr, i16, i16, ptr, i16, ptr, i16, ptr, i16, ptr, i16, ptr, ptr, ptr, ptr, i16, ptr, ptr, ptr, i32, ptr, i32, ptr, ptr, i16, ptr, ptr, i32, i16, ptr, ptr, i16, i16, ptr, i16, ptr, ptr, ptr, i32, ptr, i16, i16, ptr, ptr, ptr, ptr, ptr, ptr, ptr, ptr, i16, i32, i16, ptr, ptr, ptr, ptr, i32, ptr, ptr, ptr, i16, ptr, ptr, ptr, i16, ptr, i16, ptr, i16, i16, ptr }
%struct.stepd_step_rec_t = type { ptr, ptr, i32, %union.pthread_cond_t, %union.pthread_mutex_t, %struct.slurm_step_id_msg, i32, i32, i32, i32, i32, i32, ptr, ptr, i32, i32, ptr, i32, i32, i32, i32, i32, ptr, ptr, ptr, ptr, i32, i32, i64, i64, i16, i32, ptr, ptr, ptr, i32, ptr, i32, ptr, i32, ptr, i16, i32, i32, i32, ptr, i32, ptr, ptr, ptr, ptr, i32, i32, ptr, ptr, i8, i8, i8, i64, i32, ptr, ptr, ptr, ptr, ptr, ptr, ptr, ptr, ptr, ptr, i32, i32, ptr, i8, %union.pthread_cond_t, %union.pthread_mutex_t, i64, ptr, i32, i32, i32, ptr, i64, ptr, ptr, i8, ptr, i16, ptr, ptr, ptr, ptr, ptr, ptr, i64, ptr, i64, ptr, i16, i8, i16, i32, ptr, i16, ptr, ptr, i16, ptr, ptr, ptr, i8 }
%struct.slurm_step_id_msg = type { i64, i32, i32, i32 }
%struct.conmgr_callback_args_t = type { ptr, i32 }

@.str.9 = private unnamed_addr constant [29 x i8] c"%s: pthread_mutex_lock(): %m\00", align 1
@.str.14 = private unnamed_addr constant [31 x i8] c"%s: pthread_mutex_unlock(): %m\00", align 1
@slurm_conf = external global %struct.slurm_conf_t, align 8
@.str.60 = private unnamed_addr constant [20 x i8] c"_x11_signal_handler\00", align 1
@_x11_signal_handler.run_once = internal global i8 0, align 1
@_x11_signal_handler.mutex = internal global %union.pthread_mutex_t zeroinitializer, align 8
@.str.74 = private unnamed_addr constant [14 x i8] c"%s: cancelled\00", align 1
@.str.75 = private unnamed_addr constant [26 x i8] c"%s: Already run. bailing.\00", align 1
@.str.76 = private unnamed_addr constant [36 x i8] c"Terminate signal (SIGTERM) received\00", align 1
@.str.77 = private unnamed_addr constant [26 x i8] c"%s: cannot join container\00", align 1
@.str.78 = private unnamed_addr constant [13 x i8] c"%s: fork: %m\00", align 1
@.str.79 = private unnamed_addr constant [23 x i8] c"%s: waitpid failed: %m\00", align 1
@.str.80 = private unnamed_addr constant [32 x i8] c"%s: child terminated abnormally\00", align 1
@.str.81 = private unnamed_addr constant [28 x i8] c"%s: child returned non-zero\00", align 1
@.str.85 = private unnamed_addr constant [6 x i8] c"tmpfs\00", align 1
@.str.86 = private unnamed_addr constant [16 x i8] c"home_xauthority\00", align 1

; Function Attrs: nounwind uwtable
define internal zeroext i1 @_need_join_container() #0 {
  %1 = alloca i1, align 1
  %2 = load ptr, ptr getelementptr inbounds nuw (%struct.slurm_conf_t, ptr @slurm_conf, i32 0, i32 80), align 8
  %3 = call ptr @xstrcasestr(ptr noundef %2, ptr noundef @.str.85)
  %4 = icmp ne ptr %3, null
  br i1 %4, label %5, label %10

5:                                                ; preds = %0
  %6 = load ptr, ptr getelementptr inbounds nuw (%struct.slurm_conf_t, ptr @slurm_conf, i32 0, i32 225), align 8
  %7 = call ptr @xstrcasestr(ptr noundef %6, ptr noundef @.str.86)
  %8 = icmp ne ptr %7, null
  br i1 %8, label %10, label %9

9:                                                ; preds = %5
  store i1 true, ptr %1, align 1
  br label %11

10:                                               ; preds = %5, %0
  store i1 false, ptr %1, align 1
  br label %11

11:                                               ; preds = %10, %9
  %12 = load i1, ptr %1, align 1
  ret i1 %12
}

; Function Attrs: nounwind uwtable
define internal void @_x11_signal_handler(ptr %0, i32 %1, ptr noundef %2) #0 {
  %4 = alloca %struct.conmgr_callback_args_t, align 8
  %5 = alloca ptr, align 8
  %6 = alloca i8, align 1
  %7 = alloca ptr, align 8
  %8 = alloca i32, align 4
  %9 = alloca i32, align 4
  %10 = alloca i32, align 4
  %11 = alloca i32, align 4
  %12 = alloca i32, align 4
  %13 = alloca i32, align 4
  %14 = getelementptr inbounds nuw { ptr, i32 }, ptr %4, i32 0, i32 0
  store ptr %0, ptr %14, align 8
  %15 = getelementptr inbounds nuw { ptr, i32 }, ptr %4, i32 0, i32 1
  store i32 %1, ptr %15, align 8
  store ptr %2, ptr %5, align 8
  call void @llvm.lifetime.start.p0(i64 1, ptr %6) #12
  store i8 0, ptr %6, align 1
  call void @llvm.lifetime.start.p0(i64 8, ptr %7) #12
  %16 = load ptr, ptr %5, align 8
  store ptr %16, ptr %7, align 8
  call void @llvm.lifetime.start.p0(i64 4, ptr %8) #12
  call void @llvm.lifetime.start.p0(i64 4, ptr %9) #12
  %17 = getelementptr inbounds nuw %struct.conmgr_callback_args_t, ptr %4, i32 0, i32 1
  %18 = load i32, ptr %17, align 8
  %19 = icmp eq i32 %18, 3
  br i1 %19, label %20, label %31

20:                                               ; preds = %3
  br label %21

21:                                               ; preds = %20
  br label %22

22:                                               ; preds = %21
  %23 = call i32 @get_log_level()
  %24 = icmp sge i32 %23, 8
  br i1 %24, label %25, label %26

25:                                               ; preds = %22
  call void (i32, ptr, ...) @log_var(i32 noundef 8, ptr noundef @.str.74, ptr noundef @.str.60)
  br label %26

26:                                               ; preds = %25, %22
  br label %27

27:                                               ; preds = %26
  br label %28

28:                                               ; preds = %27
  br label %29

29:                                               ; preds = %28
  br label %30

30:                                               ; preds = %29
  store i32 1, ptr %10, align 4
  br label %128

31:                                               ; preds = %3
  br label %32

32:                                               ; preds = %31
  call void @llvm.lifetime.start.p0(i64 4, ptr %11) #12
  %33 = call i32 @pthread_mutex_lock(ptr noundef @_x11_signal_handler.mutex) #12
  store i32 %33, ptr %11, align 4
  %34 = load i32, ptr %11, align 4
  %35 = icmp ne i32 %34, 0
  br i1 %35, label %36, label %39

36:                                               ; preds = %32
  %37 = load i32, ptr %11, align 4
  %38 = call ptr @__errno_location() #13
  store i32 %37, ptr %38, align 4
  call void (ptr, ...) @fatal_abort(ptr noundef @.str.9, ptr noundef @.str.60) #14
  unreachable

39:                                               ; preds = %32
  call void @llvm.lifetime.end.p0(i64 4, ptr %11) #12
  br label %40

40:                                               ; preds = %39
  br label %41

41:                                               ; preds = %40
  %42 = load i8, ptr @_x11_signal_handler.run_once, align 1, !range !8, !noundef !9
  %43 = trunc i8 %42 to i1
  br i1 %43, label %44, label %45

44:                                               ; preds = %41
  store i8 1, ptr %6, align 1
  br label %45

45:                                               ; preds = %44, %41
  store i8 1, ptr @_x11_signal_handler.run_once, align 1
  br label %46

46:                                               ; preds = %45
  call void @llvm.lifetime.start.p0(i64 4, ptr %12) #12
  %47 = call i32 @pthread_mutex_unlock(ptr noundef @_x11_signal_handler.mutex) #12
  store i32 %47, ptr %12, align 4
  %48 = load i32, ptr %12, align 4
  %49 = icmp ne i32 %48, 0
  br i1 %49, label %50, label %53

50:                                               ; preds = %46
  %51 = load i32, ptr %12, align 4
  %52 = call ptr @__errno_location() #13
  store i32 %51, ptr %52, align 4
  call void (ptr, ...) @fatal_abort(ptr noundef @.str.14, ptr noundef @.str.60) #14
  unreachable

53:                                               ; preds = %46
  call void @llvm.lifetime.end.p0(i64 4, ptr %12) #12
  br label %54

54:                                               ; preds = %53
  br label %55

55:                                               ; preds = %54
  %56 = load i8, ptr %6, align 1, !range !8, !noundef !9
  %57 = trunc i8 %56 to i1
  br i1 %57, label %58, label %69

58:                                               ; preds = %55
  br label %59

59:                                               ; preds = %58
  br label %60

60:                                               ; preds = %59
  %61 = call i32 @get_log_level()
  %62 = icmp sge i32 %61, 8
  br i1 %62, label %63, label %64

63:                                               ; preds = %60
  call void (i32, ptr, ...) @log_var(i32 noundef 8, ptr noundef @.str.75, ptr noundef @.str.60)
  br label %64

64:                                               ; preds = %63, %60
  br label %65

65:                                               ; preds = %64
  br label %66

66:                                               ; preds = %65
  br label %67

67:                                               ; preds = %66
  br label %68

68:                                               ; preds = %67
  store i32 1, ptr %10, align 4
  br label %128

69:                                               ; preds = %55
  br label %70

70:                                               ; preds = %69
  br label %71

71:                                               ; preds = %70
  %72 = call i32 @get_log_level()
  %73 = icmp sge i32 %72, 5
  br i1 %73, label %74, label %75

74:                                               ; preds = %71
  call void (i32, ptr, ...) @log_var(i32 noundef 5, ptr noundef @.str.76)
  br label %75

75:                                               ; preds = %74, %71
  br label %76

76:                                               ; preds = %75
  br label %77

77:                                               ; preds = %76
  br label %78

78:                                               ; preds = %77
  br label %79

79:                                               ; preds = %78
  %80 = call zeroext i1 @_need_join_container()
  br i1 %80, label %83, label %81

81:                                               ; preds = %79
  %82 = load ptr, ptr %7, align 8
  call void @_shutdown_x11_forward(ptr noundef %82)
  store i32 1, ptr %10, align 4
  br label %128

83:                                               ; preds = %79
  %84 = call i32 @fork() #12
  store i32 %84, ptr %8, align 4
  %85 = icmp eq i32 %84, 0
  br i1 %85, label %86, label %98

86:                                               ; preds = %83
  %87 = load ptr, ptr %7, align 8
  %88 = getelementptr inbounds nuw %struct.stepd_step_rec_t, ptr %87, i32 0, i32 5
  %89 = load ptr, ptr %7, align 8
  %90 = getelementptr inbounds nuw %struct.stepd_step_rec_t, ptr %89, i32 0, i32 46
  %91 = load i32, ptr %90, align 8
  %92 = call i32 @container_g_join(ptr noundef %88, i32 noundef %91, i1 noundef zeroext false)
  %93 = icmp ne i32 %92, 0
  br i1 %93, label %94, label %96

94:                                               ; preds = %86
  %95 = call i32 (ptr, ...) @error(ptr noundef @.str.77, ptr noundef @.str.60)
  call void @_exit(i32 noundef 1) #14
  unreachable

96:                                               ; preds = %86
  %97 = load ptr, ptr %7, align 8
  call void @_shutdown_x11_forward(ptr noundef %97)
  call void @_exit(i32 noundef 0) #14
  unreachable

98:                                               ; preds = %83
  %99 = load i32, ptr %8, align 4
  %100 = icmp slt i32 %99, 0
  br i1 %100, label %101, label %103

101:                                              ; preds = %98
  %102 = call i32 (ptr, ...) @error(ptr noundef @.str.78, ptr noundef @.str.60)
  br label %126

103:                                              ; preds = %98
  call void @llvm.lifetime.start.p0(i64 4, ptr %13) #12
  %104 = load i32, ptr %8, align 4
  %105 = call i32 @waitpid(i32 noundef %104, ptr noundef %13, i32 noundef 0)
  store i32 %105, ptr %9, align 4
  %106 = load i32, ptr %9, align 4
  %107 = icmp slt i32 %106, 0
  br i1 %107, label %108, label %110

108:                                              ; preds = %103
  %109 = call i32 (ptr, ...) @error(ptr noundef @.str.79, ptr noundef @.str.60)
  br label %125

110:                                              ; preds = %103
  %111 = load i32, ptr %13, align 4
  %112 = and i32 %111, 127
  %113 = icmp eq i32 %112, 0
  br i1 %113, label %116, label %114

114:                                              ; preds = %110
  %115 = call i32 (ptr, ...) @error(ptr noundef @.str.80, ptr noundef @.str.60)
  br label %124

116:                                              ; preds = %110
  %117 = load i32, ptr %13, align 4
  %118 = and i32 %117, 65280
  %119 = ashr i32 %118, 8
  %120 = icmp ne i32 %119, 0
  br i1 %120, label %121, label %123

121:                                              ; preds = %116
  %122 = call i32 (ptr, ...) @error(ptr noundef @.str.81, ptr noundef @.str.60)
  br label %123

123:                                              ; preds = %121, %116
  br label %124

124:                                              ; preds = %123, %114
  br label %125

125:                                              ; preds = %124, %108
  call void @llvm.lifetime.end.p0(i64 4, ptr %13) #12
  br label %126

126:                                              ; preds = %125, %101
  br label %127

127:                                              ; preds = %126
  store i32 0, ptr %10, align 4
  br label %128

128:                                              ; preds = %127, %81, %68, %30
  call void @llvm.lifetime.end.p0(i64 4, ptr %9) #12
  call void @llvm.lifetime.end.p0(i64 4, ptr %8) #12
  call void @llvm.lifetime.end.p0(i64 8, ptr %7) #12
  call void @llvm.lifetime.end.p0(i64 1, ptr %6) #12
  %129 = load i32, ptr %10, align 4
  switch i32 %129, label %131 [
    i32 0, label %130
    i32 1, label %130
  ]

130:                                              ; preds = %128, %128
  ret void

131:                                              ; preds = %128
  unreachable
}