; Function Attrs: nounwind uwtable
define internal void @_x11_signal_handler(ptr readnone captures(none) %0, i32 %1, ptr noundef %2) #0 {
  %4 = alloca %struct.priv_state, align 8
  %5 = alloca i32, align 4
  %6 = icmp eq i32 %1, 3
  br i1 %6, label %7, label %11

7:                                                ; preds = %3
  %8 = tail call i32 @get_log_level() #17
  %9 = icmp sgt i32 %8, 7
  br i1 %9, label %10, label %69

10:                                               ; preds = %7
  tail call void (i32, ptr, ...) @log_var(i32 noundef 8, ptr noundef nonnull @.str.74, ptr noundef nonnull @.str.60) #17
  br label %69

11:                                               ; preds = %3
  %12 = tail call i32 @pthread_mutex_lock(ptr noundef nonnull @_x11_signal_handler.mutex) #17
  %.not = icmp eq i32 %12, 0
  br i1 %.not, label %15, label %13

13:                                               ; preds = %11
  %14 = tail call ptr @__errno_location() #18
  store i32 %12, ptr %14, align 4
  tail call void (ptr, ...) @fatal_abort(ptr noundef nonnull @.str.9, ptr noundef nonnull @.str.60) #19
  unreachable

15:                                               ; preds = %11
  %.b15 = load i1, ptr @_x11_signal_handler.run_once, align 1
  store i1 true, ptr @_x11_signal_handler.run_once, align 1
  %16 = tail call i32 @pthread_mutex_unlock(ptr noundef nonnull @_x11_signal_handler.mutex) #17
  %.not16 = icmp eq i32 %16, 0
  br i1 %.not16, label %19, label %17

17:                                               ; preds = %15
  %18 = tail call ptr @__errno_location() #18
  store i32 %16, ptr %18, align 4
  tail call void (ptr, ...) @fatal_abort(ptr noundef nonnull @.str.14, ptr noundef nonnull @.str.60) #19
  unreachable

19:                                               ; preds = %15
  %20 = tail call i32 @get_log_level() #17
  br i1 %.b15, label %21, label %24

21:                                               ; preds = %19
  %22 = icmp sgt i32 %20, 7
  br i1 %22, label %23, label %69

23:                                               ; preds = %21
  tail call void (i32, ptr, ...) @log_var(i32 noundef 8, ptr noundef nonnull @.str.75, ptr noundef nonnull @.str.60) #17
  br label %69

24:                                               ; preds = %19
  %25 = icmp sgt i32 %20, 4
  br i1 %25, label %26, label %27

26:                                               ; preds = %24
  tail call void (i32, ptr, ...) @log_var(i32 noundef 5, ptr noundef nonnull @.str.76) #17
  br label %27

27:                                               ; preds = %26, %24
  %28 = load ptr, ptr getelementptr inbounds nuw (i8, ptr @slurm_conf, i64 560), align 8
  %29 = tail call ptr @xstrcasestr(ptr noundef %28, ptr noundef nonnull @.str.85) #17
  %.not.i = icmp eq ptr %29, null
  br i1 %.not.i, label %_need_join_container.exit, label %30

30:                                               ; preds = %27
  %31 = load ptr, ptr getelementptr inbounds nuw (i8, ptr @slurm_conf, i64 1528), align 8
  %32 = tail call ptr @xstrcasestr(ptr noundef %31, ptr noundef nonnull @.str.86) #17
  %.not1.i = icmp eq ptr %32, null
  br i1 %.not1.i, label %43, label %_need_join_container.exit

_need_join_container.exit:                        ; preds = %30, %27
  call void @llvm.lifetime.start.p0(i64 24, ptr nonnull %4) #17
  call void @llvm.memset.p0.i64(ptr noundef nonnull align 8 dereferenceable(24) %4, i8 0, i64 24, i1 false)
  %33 = call i32 @drop_privileges(ptr noundef %2, i1 noundef zeroext true, ptr noundef nonnull %4, i1 noundef zeroext false) #17
  %34 = icmp slt i32 %33, 0
  br i1 %34, label %.sink.split.i, label %35

35:                                               ; preds = %_need_join_container.exit
  %36 = call i32 @shutdown_x11_forward(ptr noundef %2) #17
  %.not.i19 = icmp eq i32 %36, 0
  br i1 %.not.i19, label %39, label %37

37:                                               ; preds = %35
  %38 = call i32 (ptr, ...) @error(ptr noundef nonnull @.str.83, ptr noundef nonnull @__func__._shutdown_x11_forward) #17
  br label %39

39:                                               ; preds = %37, %35
  %40 = call i32 @reclaim_privileges(ptr noundef nonnull %4) #17
  %41 = icmp slt i32 %40, 0
  br i1 %41, label %.sink.split.i, label %_shutdown_x11_forward.exit

.sink.split.i:                                    ; preds = %39, %_need_join_container.exit
  %.str.84.sink.i = phi ptr [ @.str.82, %_need_join_container.exit ], [ @.str.84, %39 ]
  %42 = call i32 (ptr, ...) @error(ptr noundef nonnull %.str.84.sink.i, ptr noundef nonnull @__func__._shutdown_x11_forward) #17
  br label %_shutdown_x11_forward.exit

_shutdown_x11_forward.exit:                       ; preds = %39, %.sink.split.i
  call void @llvm.lifetime.end.p0(i64 24, ptr nonnull %4) #17
  br label %69

43:                                               ; preds = %30
  %44 = tail call i32 @fork() #17
  %45 = icmp eq i32 %44, 0
  br i1 %45, label %46, label %54

46:                                               ; preds = %43
  %47 = getelementptr inbounds nuw i8, ptr %2, i64 112
  %48 = getelementptr inbounds nuw i8, ptr %2, i64 376
  %49 = load i32, ptr %48, align 8
  %50 = tail call i32 @container_g_join(ptr noundef nonnull %47, i32 noundef %49, i1 noundef zeroext false) #17
  %.not18 = icmp eq i32 %50, 0
  br i1 %.not18, label %53, label %51

51:                                               ; preds = %46
  %52 = tail call i32 (ptr, ...) @error(ptr noundef nonnull @.str.77, ptr noundef nonnull @.str.60) #17
  tail call void @_exit(i32 noundef 1) #19
  unreachable

53:                                               ; preds = %46
  tail call fastcc void @_shutdown_x11_forward(ptr noundef nonnull %2)
  tail call void @_exit(i32 noundef 0) #19
  unreachable

54:                                               ; preds = %43
  %55 = icmp slt i32 %44, 0
  br i1 %55, label %56, label %58

56:                                               ; preds = %54
  %57 = tail call i32 (ptr, ...) @error(ptr noundef nonnull @.str.78, ptr noundef nonnull @.str.60) #17
  br label %69

58:                                               ; preds = %54
  call void @llvm.lifetime.start.p0(i64 4, ptr nonnull %5) #17
  %59 = call i32 @waitpid(i32 noundef %44, ptr noundef nonnull %5, i32 noundef 0) #17
  %60 = icmp slt i32 %59, 0
  br i1 %60, label %.sink.split, label %61

61:                                               ; preds = %58
  %62 = load i32, ptr %5, align 4
  %63 = and i32 %62, 127
  %64 = icmp eq i32 %63, 0
  br i1 %64, label %65, label %.sink.split

65:                                               ; preds = %61
  %66 = and i32 %62, 65280
  %.not17 = icmp eq i32 %66, 0
  br i1 %.not17, label %68, label %.sink.split

.sink.split:                                      ; preds = %65, %61, %58
  %.str.80.sink = phi ptr [ @.str.79, %58 ], [ @.str.80, %61 ], [ @.str.81, %65 ]
  %67 = call i32 (ptr, ...) @error(ptr noundef nonnull %.str.80.sink, ptr noundef nonnull @.str.60) #17
  br label %68

68:                                               ; preds = %.sink.split, %65
  call void @llvm.lifetime.end.p0(i64 4, ptr nonnull %5) #17
  br label %69

69:                                               ; preds = %68, %56, %21, %23, %7, %10, %_shutdown_x11_forward.exit
  ret void
}